target datalayout = "e-m:e-p270:32:32-p271:32:32-p272:64:64-i64:64-i128:128-f80:128-n8:16:32:64-S128"
target triple = "x86_64-pc-linux-gnu"

%struct.URLContext = type { ptr, ptr, ptr, ptr, i32, i32, i32, i32, %struct.AVIOInterruptCB, i64, ptr, ptr, i32 }
%struct.AVIOInterruptCB = type { ptr, ptr }
%struct.SRTPProtoContext = type { ptr, ptr, ptr, ptr, ptr, ptr, %struct.SRTPContext, %struct.SRTPContext, [8192 x i8] }
%struct.SRTPContext = type { ptr, ptr, i32, i32, [16 x i8], [14 x i8], [16 x i8], [16 x i8], [14 x i8], [14 x i8], [20 x i8], [20 x i8], i32, i32, i32, i32 }

; Function Attrs: inlinehint nounwind uwtable
define internal i32 @ffurl_write(ptr noundef %0, ptr noundef %1, i32 noundef %2) #3 {
  %4 = alloca ptr, align 8
  %5 = alloca ptr, align 8
  %6 = alloca i32, align 4
  store ptr %0, ptr %4, align 8, !tbaa !4
  store ptr %1, ptr %5, align 8, !tbaa !9
  store i32 %2, ptr %6, align 4, !tbaa !11
  %7 = load ptr, ptr %4, align 8, !tbaa !4
  %8 = load ptr, ptr %5, align 8, !tbaa !9
  %9 = load i32, ptr %6, align 4, !tbaa !11
  %10 = call i32 @ffurl_write2(ptr noundef %7, ptr noundef %8, i32 noundef %9)
  ret i32 %10
}

; Function Attrs: nounwind uwtable
define internal i32 @srtp_write(ptr noundef %0, ptr noundef %1, i32 noundef %2) #0 {
  %4 = alloca i32, align 4
  %5 = alloca ptr, align 8
  %6 = alloca ptr, align 8
  %7 = alloca i32, align 4
  %8 = alloca ptr, align 8
  %9 = alloca i32, align 4
  store ptr %0, ptr %5, align 8, !tbaa !4
  store ptr %1, ptr %6, align 8, !tbaa !9
  store i32 %2, ptr %7, align 4, !tbaa !11
  call void @llvm.lifetime.start.p0(i64 8, ptr %8) #4
  %10 = load ptr, ptr %5, align 8, !tbaa !4
  %11 = getelementptr inbounds nuw %struct.URLContext, ptr %10, i32 0, i32 2
  %12 = load ptr, ptr %11, align 8, !tbaa !16
  store ptr %12, ptr %8, align 8, !tbaa !22
  %13 = load ptr, ptr %8, align 8, !tbaa !22
  %14 = getelementptr inbounds nuw %struct.SRTPProtoContext, ptr %13, i32 0, i32 6
  %15 = getelementptr inbounds nuw %struct.SRTPContext, ptr %14, i32 0, i32 0
  %16 = load ptr, ptr %15, align 8, !tbaa !38
  %17 = icmp ne ptr %16, null
  br i1 %17, label %25, label %18

18:                                               ; preds = %3
  %19 = load ptr, ptr %8, align 8, !tbaa !22
  %20 = getelementptr inbounds nuw %struct.SRTPProtoContext, ptr %19, i32 0, i32 1
  %21 = load ptr, ptr %20, align 8, !tbaa !34
  %22 = load ptr, ptr %6, align 8, !tbaa !9
  %23 = load i32, ptr %7, align 4, !tbaa !11
  %24 = call i32 @ffurl_write(ptr noundef %21, ptr noundef %22, i32 noundef %23)
  store i32 %24, ptr %4, align 4
  store i32 1, ptr %9, align 4
  br label %47

25:                                               ; preds = %3
  %26 = load ptr, ptr %8, align 8, !tbaa !22
  %27 = getelementptr inbounds nuw %struct.SRTPProtoContext, ptr %26, i32 0, i32 6
  %28 = load ptr, ptr %6, align 8, !tbaa !9
  %29 = load i32, ptr %7, align 4, !tbaa !11
  %30 = load ptr, ptr %8, align 8, !tbaa !22
  %31 = getelementptr inbounds nuw %struct.SRTPProtoContext, ptr %30, i32 0, i32 8
  %32 = getelementptr inbounds [8192 x i8], ptr %31, i64 0, i64 0
  %33 = call i32 @ff_srtp_encrypt(ptr noundef %27, ptr noundef %28, i32 noundef %29, ptr noundef %32, i32 noundef 8192)
  store i32 %33, ptr %7, align 4, !tbaa !11
  %34 = load i32, ptr %7, align 4, !tbaa !11
  %35 = icmp slt i32 %34, 0
  br i1 %35, label %36, label %38

36:                                               ; preds = %25
  %37 = load i32, ptr %7, align 4, !tbaa !11
  store i32 %37, ptr %4, align 4
  store i32 1, ptr %9, align 4
  br label %47

38:                                               ; preds = %25
  %39 = load ptr, ptr %8, align 8, !tbaa !22
  %40 = getelementptr inbounds nuw %struct.SRTPProtoContext, ptr %39, i32 0, i32 1
  %41 = load ptr, ptr %40, align 8, !tbaa !34
  %42 = load ptr, ptr %8, align 8, !tbaa !22
  %43 = getelementptr inbounds nuw %struct.SRTPProtoContext, ptr %42, i32 0, i32 8
  %44 = getelementptr inbounds [8192 x i8], ptr %43, i64 0, i64 0
  %45 = load i32, ptr %7, align 4, !tbaa !11
  %46 = call i32 @ffurl_write(ptr noundef %41, ptr noundef %44, i32 noundef %45)
  store i32 %46, ptr %4, align 4
  store i32 1, ptr %9, align 4
  br label %47

47:                                               ; preds = %38, %36, %18
  call void @llvm.lifetime.end.p0(i64 8, ptr %8) #4
  %48 = load i32, ptr %4, align 4
  ret i32 %48
}