; Function Attrs: nounwind uwtable
define internal i32 @srtp_write(ptr noundef readonly captures(none) %0, ptr noundef %1, i32 noundef %2) #0 {
  %4 = getelementptr inbounds nuw i8, ptr %0, i64 16
  %5 = load ptr, ptr %4, align 8, !tbaa !4
  %6 = getelementptr inbounds nuw i8, ptr %5, i64 48
  %7 = load ptr, ptr %6, align 8, !tbaa !31
  %.not = icmp eq ptr %7, null
  br i1 %.not, label %8, label %12

8:                                                ; preds = %3
  %9 = getelementptr inbounds nuw i8, ptr %5, i64 8
  %10 = load ptr, ptr %9, align 8, !tbaa !27
  %11 = tail call i32 @ffurl_write2(ptr noundef %10, ptr noundef %1, i32 noundef %2) #4
  br label %20

12:                                               ; preds = %3
  %13 = getelementptr inbounds nuw i8, ptr %5, i64 400
  %14 = tail call i32 @ff_srtp_encrypt(ptr noundef nonnull %6, ptr noundef %1, i32 noundef %2, ptr noundef nonnull %13, i32 noundef 8192) #4
  %15 = icmp slt i32 %14, 0
  br i1 %15, label %20, label %16

16:                                               ; preds = %12
  %17 = getelementptr inbounds nuw i8, ptr %5, i64 8
  %18 = load ptr, ptr %17, align 8, !tbaa !27
  %19 = tail call i32 @ffurl_write2(ptr noundef %18, ptr noundef nonnull %13, i32 noundef %14) #4
  br label %20

20:                                               ; preds = %12, %16, %8
  %.0 = phi i32 [ %19, %16 ], [ %11, %8 ], [ %14, %12 ]
  ret i32 %.0
}